target datalayout = "e-m:e-p270:32:32-p271:32:32-p272:64:64-i64:64-i128:128-f80:128-n8:16:32:64-S128"
target triple = "x86_64-pc-linux-gnu"

@.str.6 = private unnamed_addr constant [2 x i8] c".\00", align 1
@.str.9 = private unnamed_addr constant [29 x i8] c"could not open file \22%s\22: %m\00", align 1
@.str.10 = private unnamed_addr constant [30 x i8] c"could not fsync file \22%s\22: %m\00", align 1
@.str.11 = private unnamed_addr constant [39 x i8] c"could not rename file \22%s\22 to \22%s\22: %m\00", align 1

; Function Attrs: nounwind uwtable
define i32 @fsync_parent_path(ptr noundef %0) #0 {
  %2 = alloca i32, align 4
  %3 = alloca ptr, align 8
  %4 = alloca [1024 x i8], align 16
  %5 = alloca i32, align 4
  store ptr %0, ptr %3, align 8
  call void @llvm.lifetime.start.p0(i64 1024, ptr %4) #9
  %6 = getelementptr inbounds [1024 x i8], ptr %4, i64 0, i64 0
  %7 = load ptr, ptr %3, align 8
  %8 = call i64 @strlcpy(ptr noundef %6, ptr noundef %7, i64 noundef 1024)
  %9 = getelementptr inbounds [1024 x i8], ptr %4, i64 0, i64 0
  call void @get_parent_directory(ptr noundef %9)
  %10 = getelementptr inbounds [1024 x i8], ptr %4, i64 0, i64 0
  %11 = call i64 @strlen(ptr noundef %10) #11
  %12 = icmp eq i64 %11, 0
  br i1 %12, label %13, label %16

13:                                               ; preds = %1
  %14 = getelementptr inbounds [1024 x i8], ptr %4, i64 0, i64 0
  %15 = call i64 @strlcpy(ptr noundef %14, ptr noundef @.str.6, i64 noundef 1024)
  br label %16

16:                                               ; preds = %13, %1
  %17 = getelementptr inbounds [1024 x i8], ptr %4, i64 0, i64 0
  %18 = call i32 @fsync_fname(ptr noundef %17, i1 noundef zeroext true)
  %19 = icmp ne i32 %18, 0
  br i1 %19, label %20, label %21

20:                                               ; preds = %16
  store i32 -1, ptr %2, align 4
  store i32 1, ptr %5, align 4
  br label %22

21:                                               ; preds = %16
  store i32 0, ptr %2, align 4
  store i32 1, ptr %5, align 4
  br label %22

22:                                               ; preds = %21, %20
  call void @llvm.lifetime.end.p0(i64 1024, ptr %4) #9
  %23 = load i32, ptr %2, align 4
  ret i32 %23
}

; Function Attrs: nounwind uwtable
define i32 @durable_rename(ptr noundef %0, ptr noundef %1) #0 {
  %3 = alloca i32, align 4
  %4 = alloca ptr, align 8
  %5 = alloca ptr, align 8
  %6 = alloca i32, align 4
  %7 = alloca i32, align 4
  store ptr %0, ptr %4, align 8
  store ptr %1, ptr %5, align 8
  call void @llvm.lifetime.start.p0(i64 4, ptr %6) #9
  %8 = load ptr, ptr %4, align 8
  %9 = call i32 @fsync_fname(ptr noundef %8, i1 noundef zeroext false)
  %10 = icmp ne i32 %9, 0
  br i1 %10, label %11, label %12

11:                                               ; preds = %2
  store i32 -1, ptr %3, align 4
  store i32 1, ptr %7, align 4
  br label %54

12:                                               ; preds = %2
  %13 = load ptr, ptr %5, align 8
  %14 = call i32 (ptr, i32, ...) @open(ptr noundef %13, i32 noundef 2, i32 noundef 0)
  store i32 %14, ptr %6, align 4
  %15 = load i32, ptr %6, align 4
  %16 = icmp slt i32 %15, 0
  br i1 %16, label %17, label %24

17:                                               ; preds = %12
  %18 = call ptr @__errno_location() #10
  %19 = load i32, ptr %18, align 4
  %20 = icmp ne i32 %19, 2
  br i1 %20, label %21, label %23

21:                                               ; preds = %17
  %22 = load ptr, ptr %5, align 8
  call void (i32, i32, ptr, ...) @pg_log_generic(i32 noundef 4, i32 noundef 0, ptr noundef @.str.9, ptr noundef %22)
  store i32 -1, ptr %3, align 4
  store i32 1, ptr %7, align 4
  br label %54

23:                                               ; preds = %17
  br label %35

24:                                               ; preds = %12
  %25 = load i32, ptr %6, align 4
  %26 = call i32 @fsync(i32 noundef %25)
  %27 = icmp ne i32 %26, 0
  br i1 %27, label %28, label %32

28:                                               ; preds = %24
  %29 = load ptr, ptr %5, align 8
  call void (i32, i32, ptr, ...) @pg_log_generic(i32 noundef 4, i32 noundef 0, ptr noundef @.str.10, ptr noundef %29)
  %30 = load i32, ptr %6, align 4
  %31 = call i32 @close(i32 noundef %30)
  call void @exit(i32 noundef 1) #12
  unreachable

32:                                               ; preds = %24
  %33 = load i32, ptr %6, align 4
  %34 = call i32 @close(i32 noundef %33)
  br label %35

35:                                               ; preds = %32, %23
  %36 = load ptr, ptr %4, align 8
  %37 = load ptr, ptr %5, align 8
  %38 = call i32 @rename(ptr noundef %36, ptr noundef %37) #9
  %39 = icmp ne i32 %38, 0
  br i1 %39, label %40, label %43

40:                                               ; preds = %35
  %41 = load ptr, ptr %4, align 8
  %42 = load ptr, ptr %5, align 8
  call void (i32, i32, ptr, ...) @pg_log_generic(i32 noundef 4, i32 noundef 0, ptr noundef @.str.11, ptr noundef %41, ptr noundef %42)
  store i32 -1, ptr %3, align 4
  store i32 1, ptr %7, align 4
  br label %54

43:                                               ; preds = %35
  %44 = load ptr, ptr %5, align 8
  %45 = call i32 @fsync_fname(ptr noundef %44, i1 noundef zeroext false)
  %46 = icmp ne i32 %45, 0
  br i1 %46, label %47, label %48

47:                                               ; preds = %43
  store i32 -1, ptr %3, align 4
  store i32 1, ptr %7, align 4
  br label %54

48:                                               ; preds = %43
  %49 = load ptr, ptr %5, align 8
  %50 = call i32 @fsync_parent_path(ptr noundef %49)
  %51 = icmp ne i32 %50, 0
  br i1 %51, label %52, label %53

52:                                               ; preds = %48
  store i32 -1, ptr %3, align 4
  store i32 1, ptr %7, align 4
  br label %54

53:                                               ; preds = %48
  store i32 0, ptr %3, align 4
  store i32 1, ptr %7, align 4
  br label %54

54:                                               ; preds = %53, %52, %47, %40, %21, %11
  call void @llvm.lifetime.end.p0(i64 4, ptr %6) #9
  %55 = load i32, ptr %3, align 4
  ret i32 %55
}