; Function Attrs: nounwind uwtable
define range(i32 -1, 1) i32 @durable_rename(ptr noundef %0, ptr noundef %1) local_unnamed_addr #0 {
  %3 = alloca [1024 x i8], align 16
  %4 = tail call i32 @fsync_fname(ptr noundef %0, i1 noundef zeroext false)
  %.not = icmp eq i32 %4, 0
  br i1 %.not, label %5, label %28

5:                                                ; preds = %2
  %6 = tail call i32 (ptr, i32, ...) @open(ptr noundef %1, i32 noundef 2, i32 noundef 0) #11
  %7 = icmp slt i32 %6, 0
  br i1 %7, label %8, label %12

8:                                                ; preds = %5
  %9 = tail call ptr @__errno_location() #12
  %10 = load i32, ptr %9, align 4
  %.not16 = icmp eq i32 %10, 2
  br i1 %.not16, label %18, label %11

11:                                               ; preds = %8
  tail call void (i32, i32, ptr, ...) @pg_log_generic(i32 noundef 4, i32 noundef 0, ptr noundef nonnull @.str.9, ptr noundef %1) #11
  br label %28

12:                                               ; preds = %5
  %13 = tail call i32 @fsync(i32 noundef %6) #11
  %.not15 = icmp eq i32 %13, 0
  br i1 %.not15, label %16, label %14

14:                                               ; preds = %12
  tail call void (i32, i32, ptr, ...) @pg_log_generic(i32 noundef 4, i32 noundef 0, ptr noundef nonnull @.str.10, ptr noundef %1) #11
  %15 = tail call i32 @close(i32 noundef %6) #11
  tail call void @exit(i32 noundef 1) #13
  unreachable

16:                                               ; preds = %12
  %17 = tail call i32 @close(i32 noundef %6) #11
  br label %18

18:                                               ; preds = %8, %16
  %19 = tail call i32 @rename(ptr noundef %0, ptr noundef %1) #11
  %.not17 = icmp eq i32 %19, 0
  br i1 %.not17, label %21, label %20

20:                                               ; preds = %18
  tail call void (i32, i32, ptr, ...) @pg_log_generic(i32 noundef 4, i32 noundef 0, ptr noundef nonnull @.str.11, ptr noundef %0, ptr noundef %1) #11
  br label %28

21:                                               ; preds = %18
  %22 = tail call i32 @fsync_fname(ptr noundef %1, i1 noundef zeroext false)
  %.not18 = icmp eq i32 %22, 0
  br i1 %.not18, label %23, label %28

23:                                               ; preds = %21
  call void @llvm.lifetime.start.p0(i64 1024, ptr nonnull %3) #11
  %24 = call i64 @strlcpy(ptr noundef nonnull dereferenceable(1) %3, ptr noundef nonnull dereferenceable(1) %1, i64 noundef 1024) #11
  call void @get_parent_directory(ptr noundef nonnull %3) #11
  %char0.i = load i8, ptr %3, align 16
  %25 = icmp eq i8 %char0.i, 0
  br i1 %25, label %26, label %fsync_parent_path.exit

26:                                               ; preds = %23
  store i16 46, ptr %3, align 16
  br label %fsync_parent_path.exit

fsync_parent_path.exit:                           ; preds = %23, %26
  %27 = call i32 @fsync_fname(ptr noundef nonnull %3, i1 noundef zeroext true)
  %.not.i.not = icmp ne i32 %27, 0
  call void @llvm.lifetime.end.p0(i64 1024, ptr nonnull %3) #11
  %. = sext i1 %.not.i.not to i32
  br label %28

28:                                               ; preds = %fsync_parent_path.exit, %21, %2, %20, %11
  %.0 = phi i32 [ -1, %11 ], [ -1, %20 ], [ -1, %2 ], [ -1, %21 ], [ %., %fsync_parent_path.exit ]
  ret i32 %.0
}